target datalayout = "e-m:e-p270:32:32-p271:32:32-p272:64:64-i64:64-i128:128-f80:128-n8:16:32:64-S128"
target triple = "x86_64-pc-linux-gnu"

%struct.Vec_Int_t_ = type { i32, i32, ptr }
%struct.Gia_Man_t_ = type { ptr, ptr, i32, i32, i32, i32, ptr, ptr, i32, i32, i32, ptr, ptr, %struct.Vec_Int_t_, %struct.Vec_Int_t_, i32, i32, i32, %struct.Vec_Int_t_, ptr, ptr, ptr, i32, i32, i32, i32, ptr, ptr, ptr, ptr, ptr, i32, i32, ptr, i32, ptr, ptr, ptr, ptr, ptr, ptr, ptr, ptr, ptr, ptr, ptr, ptr, ptr, ptr, ptr, ptr, ptr, ptr, %struct.Vec_Int_t_, %struct.Vec_Int_t_, ptr, ptr, ptr, ptr, ptr, ptr, ptr, ptr, ptr, ptr, ptr, ptr, ptr, ptr, ptr, ptr, ptr, ptr, ptr, ptr, ptr, i32, float, float, ptr, ptr, i32, ptr, ptr, ptr, ptr, ptr, ptr, ptr, ptr, ptr, ptr, ptr, ptr, ptr, ptr, ptr, i64, i64, ptr, ptr, i32, i32, i32, i32, i32, i32, i32, i32, i32, i32, i32, i32, ptr, ptr, ptr, ptr, ptr, ptr, ptr, ptr, i32, i32, i32, ptr, i32, i32, ptr, ptr, ptr, ptr, ptr, ptr, i32, i32, ptr, %struct.Vec_Int_t_, %struct.Vec_Int_t_, %struct.Vec_Int_t_, ptr, ptr, ptr }

@.str.119 = private unnamed_addr constant [8 x i8] c"Cof0 : \00", align 1
@.str.120 = private unnamed_addr constant [8 x i8] c"Cof1 : \00", align 1

; Function Attrs: nounwind uwtable
define internal i32 @Vec_IntSize(ptr noundef %0) #0 {
  %2 = alloca ptr, align 8
  store ptr %0, ptr %2, align 8
  %3 = load ptr, ptr %2, align 8
  %4 = getelementptr inbounds %struct.Vec_Int_t_, ptr %3, i32 0, i32 1
  %5 = load i32, ptr %4, align 4
  ret i32 %5
}

; Function Attrs: nounwind uwtable
define internal i32 @Gia_ManAndNum(ptr noundef %0) #0 {
  %2 = alloca ptr, align 8
  store ptr %0, ptr %2, align 8
  %3 = load ptr, ptr %2, align 8
  %4 = getelementptr inbounds %struct.Gia_Man_t_, ptr %3, i32 0, i32 4
  %5 = load i32, ptr %4, align 8
  %6 = load ptr, ptr %2, align 8
  %7 = getelementptr inbounds %struct.Gia_Man_t_, ptr %6, i32 0, i32 11
  %8 = load ptr, ptr %7, align 8
  %9 = call i32 @Vec_IntSize(ptr noundef %8)
  %10 = sub nsw i32 %5, %9
  %11 = load ptr, ptr %2, align 8
  %12 = getelementptr inbounds %struct.Gia_Man_t_, ptr %11, i32 0, i32 12
  %13 = load ptr, ptr %12, align 8
  %14 = call i32 @Vec_IntSize(ptr noundef %13)
  %15 = sub nsw i32 %10, %14
  %16 = sub nsw i32 %15, 1
  ret i32 %16
}

; Function Attrs: nounwind uwtable
define internal i32 @Gia_ManCiNum(ptr noundef %0) #0 {
  %2 = alloca ptr, align 8
  store ptr %0, ptr %2, align 8
  %3 = load ptr, ptr %2, align 8
  %4 = getelementptr inbounds %struct.Gia_Man_t_, ptr %3, i32 0, i32 11
  %5 = load ptr, ptr %4, align 8
  %6 = call i32 @Vec_IntSize(ptr noundef %5)
  ret i32 %6
}

; Function Attrs: nounwind uwtable
define ptr @Acb_NtkDeriveMiterCnfInter2(ptr noundef %0, i32 noundef %1, i32 noundef %2) #0 {
  %4 = alloca ptr, align 8
  %5 = alloca i32, align 4
  %6 = alloca i32, align 4
  %7 = alloca ptr, align 8
  %8 = alloca ptr, align 8
  %9 = alloca ptr, align 8
  %10 = alloca ptr, align 8
  %11 = alloca i32, align 4
  store ptr %0, ptr %4, align 8
  store i32 %1, ptr %5, align 4
  store i32 %2, ptr %6, align 4
  %12 = load ptr, ptr %4, align 8
  %13 = call ptr @Gia_ManDup(ptr noundef %12)
  store ptr %13, ptr %10, align 8
  store i32 0, ptr %11, align 4
  br label %14

14:                                               ; preds = %31, %3
  %15 = load i32, ptr %11, align 4
  %16 = load i32, ptr %5, align 4
  %17 = icmp slt i32 %15, %16
  br i1 %17, label %18, label %34

18:                                               ; preds = %14
  %19 = load ptr, ptr %10, align 8
  store ptr %19, ptr %4, align 8
  %20 = load ptr, ptr %10, align 8
  %21 = call i32 @Gia_ManCiNum(ptr noundef %20)
  %22 = load i32, ptr %6, align 4
  %23 = sub nsw i32 %21, %22
  %24 = load i32, ptr %11, align 4
  %25 = add nsw i32 %23, %24
  %26 = call ptr @Gia_ManDupUniv(ptr noundef %19, i32 noundef %25)
  store ptr %26, ptr %10, align 8
  %27 = load ptr, ptr %4, align 8
  call void @Gia_ManStop(ptr noundef %27)
  %28 = load ptr, ptr %10, align 8
  store ptr %28, ptr %4, align 8
  %29 = call ptr @Acb_NtkEcoSynthesize(ptr noundef %28)
  store ptr %29, ptr %10, align 8
  %30 = load ptr, ptr %4, align 8
  call void @Gia_ManStop(ptr noundef %30)
  br label %31

31:                                               ; preds = %18
  %32 = load i32, ptr %11, align 4
  %33 = add nsw i32 %32, 1
  store i32 %33, ptr %11, align 4
  br label %14, !llvm.loop !196

34:                                               ; preds = %14
  %35 = load ptr, ptr %10, align 8
  %36 = load ptr, ptr %10, align 8
  %37 = call i32 @Gia_ManCiNum(ptr noundef %36)
  %38 = load i32, ptr %6, align 4
  %39 = sub nsw i32 %37, %38
  %40 = load i32, ptr %5, align 4
  %41 = add nsw i32 %39, %40
  %42 = call ptr @Gia_ManDupCofactorVar(ptr noundef %35, i32 noundef %41, i32 noundef 1)
  store ptr %42, ptr %8, align 8
  %43 = load ptr, ptr %10, align 8
  %44 = load ptr, ptr %10, align 8
  %45 = call i32 @Gia_ManCiNum(ptr noundef %44)
  %46 = load i32, ptr %6, align 4
  %47 = sub nsw i32 %45, %46
  %48 = load i32, ptr %5, align 4
  %49 = add nsw i32 %47, %48
  %50 = call ptr @Gia_ManDupCofactorVar(ptr noundef %43, i32 noundef %49, i32 noundef 0)
  store ptr %50, ptr %9, align 8
  %51 = load ptr, ptr %10, align 8
  call void @Gia_ManStop(ptr noundef %51)
  %52 = load ptr, ptr %8, align 8
  store ptr %52, ptr %4, align 8
  %53 = call ptr @Acb_NtkEcoSynthesize(ptr noundef %52)
  store ptr %53, ptr %8, align 8
  %54 = load ptr, ptr %4, align 8
  call void @Gia_ManStop(ptr noundef %54)
  %55 = load ptr, ptr %9, align 8
  store ptr %55, ptr %4, align 8
  %56 = call ptr @Acb_NtkEcoSynthesize(ptr noundef %55)
  store ptr %56, ptr %9, align 8
  %57 = load ptr, ptr %4, align 8
  call void @Gia_ManStop(ptr noundef %57)
  %58 = call i32 (ptr, ...) @printf(ptr noundef @.str.119)
  %59 = load ptr, ptr %8, align 8
  call void @Gia_ManPrintStats(ptr noundef %59, ptr noundef null)
  %60 = call i32 (ptr, ...) @printf(ptr noundef @.str.120)
  %61 = load ptr, ptr %9, align 8
  call void @Gia_ManPrintStats(ptr noundef %61, ptr noundef null)
  %62 = load ptr, ptr %9, align 8
  %63 = call i32 @Gia_ManAndNum(ptr noundef %62)
  %64 = icmp eq i32 %63, 0
  br i1 %64, label %69, label %65

65:                                               ; preds = %34
  %66 = load ptr, ptr %8, align 8
  %67 = call i32 @Gia_ManAndNum(ptr noundef %66)
  %68 = icmp eq i32 %67, 0
  br i1 %68, label %69, label %72

69:                                               ; preds = %65, %34
  %70 = load ptr, ptr %9, align 8
  %71 = call ptr @Gia_ManDup(ptr noundef %70)
  store ptr %71, ptr %7, align 8
  br label %76

72:                                               ; preds = %65
  %73 = load ptr, ptr %9, align 8
  %74 = load ptr, ptr %8, align 8
  %75 = call ptr @Gia_ManInterOneInt(ptr noundef %73, ptr noundef %74, i32 noundef 7)
  store ptr %75, ptr %7, align 8
  br label %76

76:                                               ; preds = %72, %69
  %77 = load ptr, ptr %8, align 8
  call void @Gia_ManStop(ptr noundef %77)
  %78 = load ptr, ptr %9, align 8
  call void @Gia_ManStop(ptr noundef %78)
  %79 = load ptr, ptr %7, align 8
  store ptr %79, ptr %4, align 8
  %80 = call ptr @Abc_GiaSynthesizeInter(ptr noundef %79)
  store ptr %80, ptr %7, align 8
  %81 = load ptr, ptr %4, align 8
  call void @Gia_ManStop(ptr noundef %81)
  %82 = load ptr, ptr %7, align 8
  store ptr %82, ptr %4, align 8
  %83 = load i32, ptr %6, align 4
  %84 = call ptr @Gia_ManDupRemovePis(ptr noundef %82, i32 noundef %83)
  store ptr %84, ptr %7, align 8
  %85 = load ptr, ptr %4, align 8
  call void @Gia_ManStop(ptr noundef %85)
  %86 = load ptr, ptr %7, align 8
  ret ptr %86
}