; Function Attrs: nounwind uwtable
define ptr @Acb_NtkDeriveMiterCnfInter2(ptr noundef %0, i32 noundef %1, i32 noundef %2) local_unnamed_addr #0 {
  %4 = tail call ptr @Gia_ManDup(ptr noundef %0) #31
  %5 = icmp sgt i32 %1, 0
  br i1 %5, label %.lr.ph, label %._crit_edge

.lr.ph:                                           ; preds = %3, %.lr.ph
  %.048 = phi i32 [ %12, %.lr.ph ], [ 0, %3 ]
  %.03847 = phi ptr [ %11, %.lr.ph ], [ %4, %3 ]
  %6 = getelementptr i8, ptr %.03847, i64 64
  %.038.val42 = load ptr, ptr %6, align 8
  %7 = getelementptr i8, ptr %.038.val42, i64 4
  %.038.val42.val = load i32, ptr %7, align 4
  %8 = sub i32 %.048, %2
  %9 = add i32 %8, %.038.val42.val
  %10 = tail call ptr @Gia_ManDupUniv(ptr noundef %.03847, i32 noundef %9) #31
  tail call void @Gia_ManStop(ptr noundef %.03847) #31
  %11 = tail call ptr @Acb_NtkEcoSynthesize(ptr noundef %10)
  tail call void @Gia_ManStop(ptr noundef %10) #31
  %12 = add nuw nsw i32 %.048, 1
  %exitcond.not = icmp eq i32 %12, %1
  br i1 %exitcond.not, label %._crit_edge, label %.lr.ph, !llvm.loop !180

._crit_edge:                                      ; preds = %.lr.ph, %3
  %.038.lcssa = phi ptr [ %4, %3 ], [ %11, %.lr.ph ]
  %13 = getelementptr i8, ptr %.038.lcssa, i64 64
  %.038.val41 = load ptr, ptr %13, align 8
  %14 = getelementptr i8, ptr %.038.val41, i64 4
  %.038.val41.val = load i32, ptr %14, align 4
  %15 = sub i32 %1, %2
  %16 = add i32 %15, %.038.val41.val
  %17 = tail call ptr @Gia_ManDupCofactorVar(ptr noundef %.038.lcssa, i32 noundef %16, i32 noundef 1) #31
  %.038.val = load ptr, ptr %13, align 8
  %18 = getelementptr i8, ptr %.038.val, i64 4
  %.038.val.val = load i32, ptr %18, align 4
  %19 = add i32 %15, %.038.val.val
  %20 = tail call ptr @Gia_ManDupCofactorVar(ptr noundef %.038.lcssa, i32 noundef %19, i32 noundef 0) #31
  tail call void @Gia_ManStop(ptr noundef %.038.lcssa) #31
  %21 = tail call ptr @Acb_NtkEcoSynthesize(ptr noundef %17)
  tail call void @Gia_ManStop(ptr noundef %17) #31
  %22 = tail call ptr @Acb_NtkEcoSynthesize(ptr noundef %20)
  tail call void @Gia_ManStop(ptr noundef %20) #31
  %23 = tail call i32 (ptr, ...) @printf(ptr noundef nonnull dereferenceable(1) @.str.119)
  tail call void @Gia_ManPrintStats(ptr noundef %21, ptr noundef null) #31
  %24 = tail call i32 (ptr, ...) @printf(ptr noundef nonnull dereferenceable(1) @.str.120)
  tail call void @Gia_ManPrintStats(ptr noundef %22, ptr noundef null) #31
  %25 = getelementptr inbounds nuw i8, ptr %22, i64 24
  %26 = load i32, ptr %25, align 8
  %27 = getelementptr inbounds nuw i8, ptr %22, i64 64
  %28 = load ptr, ptr %27, align 8
  %29 = getelementptr i8, ptr %28, i64 4
  %.val3.i = load i32, ptr %29, align 4
  %30 = getelementptr inbounds nuw i8, ptr %22, i64 72
  %31 = load ptr, ptr %30, align 8
  %32 = getelementptr i8, ptr %31, i64 4
  %.val.i = load i32, ptr %32, align 4
  %33 = add i32 %.val3.i, 1
  %.neg = add i32 %33, %.val.i
  %34 = icmp eq i32 %26, %.neg
  br i1 %34, label %46, label %35

35:                                               ; preds = %._crit_edge
  %36 = getelementptr inbounds nuw i8, ptr %21, i64 24
  %37 = load i32, ptr %36, align 8
  %38 = getelementptr inbounds nuw i8, ptr %21, i64 64
  %39 = load ptr, ptr %38, align 8
  %40 = getelementptr i8, ptr %39, i64 4
  %.val3.i43 = load i32, ptr %40, align 4
  %41 = getelementptr inbounds nuw i8, ptr %21, i64 72
  %42 = load ptr, ptr %41, align 8
  %43 = getelementptr i8, ptr %42, i64 4
  %.val.i44 = load i32, ptr %43, align 4
  %44 = add i32 %.val3.i43, 1
  %.neg45 = add i32 %44, %.val.i44
  %45 = icmp eq i32 %37, %.neg45
  br i1 %45, label %46, label %48

46:                                               ; preds = %35, %._crit_edge
  %47 = tail call ptr @Gia_ManDup(ptr noundef nonnull %22) #31
  br label %50

48:                                               ; preds = %35
  %49 = tail call ptr @Gia_ManInterOneInt(ptr noundef nonnull %22, ptr noundef nonnull %21, i32 noundef 7)
  br label %50

50:                                               ; preds = %48, %46
  %.039 = phi ptr [ %47, %46 ], [ %49, %48 ]
  tail call void @Gia_ManStop(ptr noundef %21) #31
  tail call void @Gia_ManStop(ptr noundef nonnull %22) #31
  %51 = tail call ptr @Abc_GiaSynthesizeInter(ptr noundef %.039) #31
  tail call void @Gia_ManStop(ptr noundef %.039) #31
  %52 = tail call ptr @Gia_ManDupRemovePis(ptr noundef %51, i32 noundef %2) #31
  tail call void @Gia_ManStop(ptr noundef %51) #31
  ret ptr %52
}